target datalayout = "e-m:e-p270:32:32-p271:32:32-p272:64:64-i64:64-i128:128-f80:128-n8:16:32:64-S128"
target triple = "x86_64-pc-linux-gnu"

%"class.icu_77::UnicodeString" = type { %"class.icu_77::Replaceable", %"union.icu_77::UnicodeString::StackBufferOrFields" }
%"class.icu_77::Replaceable" = type { %"class.icu_77::UObject" }
%"class.icu_77::UObject" = type { ptr }
%"union.icu_77::UnicodeString::StackBufferOrFields" = type { %struct.anon.0, [32 x i8] }
%struct.anon.0 = type { i16, i32, i32, ptr }
%"class.icu_77::StringPiece" = type <{ ptr, i32, [4 x i8] }>
%struct.anon = type { i16, [27 x i16] }

; Function Attrs: inlinehint mustprogress nounwind uwtable
define linkonce_odr void @_ZN6icu_7713UnicodeString14setShortLengthEi(ptr noundef nonnull align 8 dereferenceable(64) %0, i32 noundef %1) #1 comdat align 2 {
  %3 = alloca ptr, align 8
  %4 = alloca i32, align 4
  store ptr %0, ptr %3, align 8, !tbaa !3
  store i32 %1, ptr %4, align 4, !tbaa !15
  %5 = load ptr, ptr %3, align 8
  %6 = getelementptr inbounds nuw %"class.icu_77::UnicodeString", ptr %5, i32 0, i32 1
  %7 = getelementptr inbounds nuw %struct.anon.0, ptr %6, i32 0, i32 0
  %8 = load i16, ptr %7, align 8, !tbaa !12
  %9 = sext i16 %8 to i32
  %10 = and i32 %9, 31
  %11 = load i32, ptr %4, align 4, !tbaa !15
  %12 = shl i32 %11, 5
  %13 = or i32 %10, %12
  %14 = trunc i32 %13 to i16
  %15 = getelementptr inbounds nuw %"class.icu_77::UnicodeString", ptr %5, i32 0, i32 1
  %16 = getelementptr inbounds nuw %struct.anon.0, ptr %15, i32 0, i32 0
  store i16 %14, ptr %16, align 8, !tbaa !12
  ret void
}

; Function Attrs: inlinehint mustprogress nounwind uwtable
define internal noundef signext i8 @_ZL9U_FAILURE10UErrorCode(i32 noundef %0) #1 {
  %2 = alloca i32, align 4
  store i32 %0, ptr %2, align 4, !tbaa !17
  %3 = load i32, ptr %2, align 4, !tbaa !17
  %4 = icmp sgt i32 %3, 0
  %5 = zext i1 %4 to i8
  ret i8 %5
}

; Function Attrs: inlinehint mustprogress uwtable
define linkonce_odr void @_ZN6icu_7713UnicodeString9setLengthEi(ptr noundef nonnull align 8 dereferenceable(64) %0, i32 noundef %1) #5 comdat align 2 {
  %3 = alloca ptr, align 8
  %4 = alloca i32, align 4
  store ptr %0, ptr %3, align 8, !tbaa !3
  store i32 %1, ptr %4, align 4, !tbaa !15
  %5 = load ptr, ptr %3, align 8
  %6 = load i32, ptr %4, align 4, !tbaa !15
  %7 = icmp sle i32 %6, 1023
  br i1 %7, label %8, label %10

8:                                                ; preds = %2
  %9 = load i32, ptr %4, align 4, !tbaa !15
  call void @_ZN6icu_7713UnicodeString14setShortLengthEi(ptr noundef nonnull align 8 dereferenceable(64) %5, i32 noundef %9)
  br label %20

10:                                               ; preds = %2
  %11 = getelementptr inbounds nuw %"class.icu_77::UnicodeString", ptr %5, i32 0, i32 1
  %12 = getelementptr inbounds nuw %struct.anon.0, ptr %11, i32 0, i32 0
  %13 = load i16, ptr %12, align 8, !tbaa !12
  %14 = sext i16 %13 to i32
  %15 = or i32 %14, 65504
  %16 = trunc i32 %15 to i16
  store i16 %16, ptr %12, align 8, !tbaa !12
  %17 = load i32, ptr %4, align 4, !tbaa !15
  %18 = getelementptr inbounds nuw %"class.icu_77::UnicodeString", ptr %5, i32 0, i32 1
  %19 = getelementptr inbounds nuw %struct.anon.0, ptr %18, i32 0, i32 1
  store i32 %17, ptr %19, align 4, !tbaa !12
  br label %20

20:                                               ; preds = %10, %8
  ret void
}

; Function Attrs: inlinehint mustprogress nounwind uwtable
define linkonce_odr noundef ptr @_ZN6icu_7713UnicodeString13getArrayStartEv(ptr noundef nonnull align 8 dereferenceable(64) %0) #1 comdat align 2 {
  %2 = alloca ptr, align 8
  store ptr %0, ptr %2, align 8, !tbaa !3
  %3 = load ptr, ptr %2, align 8
  %4 = getelementptr inbounds nuw %"class.icu_77::UnicodeString", ptr %3, i32 0, i32 1
  %5 = getelementptr inbounds nuw %struct.anon.0, ptr %4, i32 0, i32 0
  %6 = load i16, ptr %5, align 8, !tbaa !12
  %7 = sext i16 %6 to i32
  %8 = and i32 %7, 2
  %9 = icmp ne i32 %8, 0
  br i1 %9, label %10, label %14

10:                                               ; preds = %1
  %11 = getelementptr inbounds nuw %"class.icu_77::UnicodeString", ptr %3, i32 0, i32 1
  %12 = getelementptr inbounds nuw %struct.anon, ptr %11, i32 0, i32 1
  %13 = getelementptr inbounds [27 x i16], ptr %12, i64 0, i64 0
  br label %18

14:                                               ; preds = %1
  %15 = getelementptr inbounds nuw %"class.icu_77::UnicodeString", ptr %3, i32 0, i32 1
  %16 = getelementptr inbounds nuw %struct.anon.0, ptr %15, i32 0, i32 3
  %17 = load ptr, ptr %16, align 8, !tbaa !12
  br label %18

18:                                               ; preds = %14, %10
  %19 = phi ptr [ %13, %10 ], [ %17, %14 ]
  ret ptr %19
}

; Function Attrs: mustprogress nounwind uwtable
define linkonce_odr void @_ZN6icu_7711StringPieceC2EPKci(ptr noundef nonnull align 8 dereferenceable(12) %0, ptr noundef %1, i32 noundef %2) unnamed_addr #7 comdat align 2 {
  %4 = alloca ptr, align 8
  %5 = alloca ptr, align 8
  %6 = alloca i32, align 4
  store ptr %0, ptr %4, align 8, !tbaa !29
  store ptr %1, ptr %5, align 8, !tbaa !8
  store i32 %2, ptr %6, align 4, !tbaa !15
  %7 = load ptr, ptr %4, align 8
  %8 = getelementptr inbounds nuw %"class.icu_77::StringPiece", ptr %7, i32 0, i32 0
  %9 = load ptr, ptr %5, align 8, !tbaa !8
  store ptr %9, ptr %8, align 8, !tbaa !31
  %10 = getelementptr inbounds nuw %"class.icu_77::StringPiece", ptr %7, i32 0, i32 1
  %11 = load i32, ptr %6, align 4, !tbaa !15
  store i32 %11, ptr %10, align 8, !tbaa !33
  ret void
}

; Function Attrs: mustprogress uwtable
define void @_ZN6icu_7713UnicodeString16doCodepageCreateEPKciS2_(ptr noundef nonnull align 8 dereferenceable(64) %0, ptr noundef %1, i32 noundef %2, ptr noundef %3) #0 align 2 {
  %5 = alloca ptr, align 8
  %6 = alloca ptr, align 8
  %7 = alloca i32, align 4
  %8 = alloca ptr, align 8
  %9 = alloca i32, align 4
  %10 = alloca ptr, align 8
  %11 = alloca ptr, align 8
  %12 = alloca %"class.icu_77::StringPiece", align 8
  %13 = alloca i32, align 4
  store ptr %0, ptr %5, align 8, !tbaa !3
  store ptr %1, ptr %6, align 8, !tbaa !8
  store i32 %2, ptr %7, align 4, !tbaa !15
  store ptr %3, ptr %8, align 8, !tbaa !8
  %14 = load ptr, ptr %5, align 8
  %15 = load ptr, ptr %6, align 8, !tbaa !8
  %16 = icmp eq ptr %15, null
  br i1 %16, label %23, label %17

17:                                               ; preds = %4
  %18 = load i32, ptr %7, align 4, !tbaa !15
  %19 = icmp eq i32 %18, 0
  br i1 %19, label %23, label %20

20:                                               ; preds = %17
  %21 = load i32, ptr %7, align 4, !tbaa !15
  %22 = icmp slt i32 %21, -1
  br i1 %22, label %23, label %24

23:                                               ; preds = %20, %17, %4
  br label %158

24:                                               ; preds = %20
  %25 = load i32, ptr %7, align 4, !tbaa !15
  %26 = icmp eq i32 %25, -1
  br i1 %26, label %27, label %31

27:                                               ; preds = %24
  %28 = load ptr, ptr %6, align 8, !tbaa !8
  %29 = call i64 @strlen(ptr noundef %28) #8
  %30 = trunc i64 %29 to i32
  store i32 %30, ptr %7, align 4, !tbaa !15
  br label %31

31:                                               ; preds = %27, %24
  call void @llvm.lifetime.start.p0(i64 4, ptr %9) #9
  store i32 0, ptr %9, align 4, !tbaa !17
  call void @llvm.lifetime.start.p0(i64 8, ptr %10) #9
  %32 = load ptr, ptr %8, align 8, !tbaa !8
  %33 = icmp eq ptr %32, null
  br i1 %33, label %34, label %114

34:                                               ; preds = %31
  call void @llvm.lifetime.start.p0(i64 8, ptr %11) #9
  %35 = call ptr @ucnv_getDefaultName_77()
  store ptr %35, ptr %11, align 8, !tbaa !8
  %36 = load ptr, ptr %11, align 8, !tbaa !8
  %37 = getelementptr inbounds i8, ptr %36, i64 0
  %38 = load i8, ptr %37, align 1, !tbaa !12
  %39 = sext i8 %38 to i32
  %40 = icmp eq i32 %39, 85
  br i1 %40, label %41, label %53

41:                                               ; preds = %34
  %42 = load ptr, ptr %11, align 8, !tbaa !8
  %43 = getelementptr inbounds i8, ptr %42, i64 1
  %44 = load i8, ptr %43, align 1, !tbaa !12
  %45 = sext i8 %44 to i32
  %46 = icmp eq i32 %45, 84
  br i1 %46, label %47, label %109

47:                                               ; preds = %41
  %48 = load ptr, ptr %11, align 8, !tbaa !8
  %49 = getelementptr inbounds i8, ptr %48, i64 2
  %50 = load i8, ptr %49, align 1, !tbaa !12
  %51 = sext i8 %50 to i32
  %52 = icmp eq i32 %51, 70
  br i1 %52, label %71, label %109

53:                                               ; preds = %34
  %54 = load ptr, ptr %11, align 8, !tbaa !8
  %55 = getelementptr inbounds i8, ptr %54, i64 0
  %56 = load i8, ptr %55, align 1, !tbaa !12
  %57 = sext i8 %56 to i32
  %58 = icmp eq i32 %57, 117
  br i1 %58, label %59, label %109

59:                                               ; preds = %53
  %60 = load ptr, ptr %11, align 8, !tbaa !8
  %61 = getelementptr inbounds i8, ptr %60, i64 1
  %62 = load i8, ptr %61, align 1, !tbaa !12
  %63 = sext i8 %62 to i32
  %64 = icmp eq i32 %63, 116
  br i1 %64, label %65, label %109

65:                                               ; preds = %59
  %66 = load ptr, ptr %11, align 8, !tbaa !8
  %67 = getelementptr inbounds i8, ptr %66, i64 2
  %68 = load i8, ptr %67, align 1, !tbaa !12
  %69 = sext i8 %68 to i32
  %70 = icmp eq i32 %69, 102
  br i1 %70, label %71, label %109

71:                                               ; preds = %65, %47
  %72 = load ptr, ptr %11, align 8, !tbaa !8
  %73 = getelementptr inbounds i8, ptr %72, i64 3
  %74 = load i8, ptr %73, align 1, !tbaa !12
  %75 = sext i8 %74 to i32
  %76 = icmp eq i32 %75, 45
  br i1 %76, label %77, label %89

77:                                               ; preds = %71
  %78 = load ptr, ptr %11, align 8, !tbaa !8
  %79 = getelementptr inbounds i8, ptr %78, i64 4
  %80 = load i8, ptr %79, align 1, !tbaa !12
  %81 = sext i8 %80 to i32
  %82 = icmp eq i32 %81, 56
  br i1 %82, label %83, label %109

83:                                               ; preds = %77
  %84 = load ptr, ptr %11, align 8, !tbaa !8
  %85 = getelementptr inbounds i8, ptr %84, i64 5
  %86 = load i8, ptr %85, align 1, !tbaa !12
  %87 = sext i8 %86 to i32
  %88 = icmp eq i32 %87, 0
  br i1 %88, label %101, label %109

89:                                               ; preds = %71
  %90 = load ptr, ptr %11, align 8, !tbaa !8
  %91 = getelementptr inbounds i8, ptr %90, i64 3
  %92 = load i8, ptr %91, align 1, !tbaa !12
  %93 = sext i8 %92 to i32
  %94 = icmp eq i32 %93, 56
  br i1 %94, label %95, label %109

95:                                               ; preds = %89
  %96 = load ptr, ptr %11, align 8, !tbaa !8
  %97 = getelementptr inbounds i8, ptr %96, i64 4
  %98 = load i8, ptr %97, align 1, !tbaa !12
  %99 = sext i8 %98 to i32
  %100 = icmp eq i32 %99, 0
  br i1 %100, label %101, label %109

101:                                              ; preds = %95, %83
  %102 = load ptr, ptr %6, align 8, !tbaa !8
  %103 = load i32, ptr %7, align 4, !tbaa !15
  call void @_ZN6icu_7711StringPieceC2EPKci(ptr noundef nonnull align 8 dereferenceable(12) %12, ptr noundef %102, i32 noundef %103)
  %104 = getelementptr inbounds nuw { ptr, i32 }, ptr %12, i32 0, i32 0
  %105 = load ptr, ptr %104, align 8
  %106 = getelementptr inbounds nuw { ptr, i32 }, ptr %12, i32 0, i32 1
  %107 = load i32, ptr %106, align 8
  %108 = call noundef nonnull align 8 dereferenceable(64) ptr @_ZN6icu_7713UnicodeString9setToUTF8ENS_11StringPieceE(ptr noundef nonnull align 8 dereferenceable(64) %14, ptr %105, i32 %107)
  store i32 1, ptr %13, align 4
  br label %111

109:                                              ; preds = %95, %89, %83, %77, %65, %59, %53, %47, %41
  %110 = call ptr @u_getDefaultConverter_77(ptr noundef %9)
  store ptr %110, ptr %10, align 8, !tbaa !19
  store i32 0, ptr %13, align 4
  br label %111

111:                                              ; preds = %109, %101
  call void @llvm.lifetime.end.p0(i64 8, ptr %11) #9
  %112 = load i32, ptr %13, align 4
  switch i32 %112, label %156 [
    i32 0, label %113
  ]

113:                                              ; preds = %111
  br label %135

114:                                              ; preds = %31
  %115 = load ptr, ptr %8, align 8, !tbaa !8
  %116 = load i8, ptr %115, align 1, !tbaa !12
  %117 = sext i8 %116 to i32
  %118 = icmp eq i32 %117, 0
  br i1 %118, label %119, label %131

119:                                              ; preds = %114
  %120 = load i32, ptr %7, align 4, !tbaa !15
  %121 = load i32, ptr %7, align 4, !tbaa !15
  %122 = call noundef signext i8 @_ZN6icu_7713UnicodeString18cloneArrayIfNeededEiiaPPia(ptr noundef nonnull align 8 dereferenceable(64) %14, i32 noundef %120, i32 noundef %121, i8 noundef signext 0, ptr noundef null, i8 noundef signext 0)
  %123 = icmp ne i8 %122, 0
  br i1 %123, label %124, label %129

124:                                              ; preds = %119
  %125 = load ptr, ptr %6, align 8, !tbaa !8
  %126 = call noundef ptr @_ZN6icu_7713UnicodeString13getArrayStartEv(ptr noundef nonnull align 8 dereferenceable(64) %14)
  %127 = load i32, ptr %7, align 4, !tbaa !15
  call void @u_charsToUChars_77(ptr noundef %125, ptr noundef %126, i32 noundef %127)
  %128 = load i32, ptr %7, align 4, !tbaa !15
  call void @_ZN6icu_7713UnicodeString9setLengthEi(ptr noundef nonnull align 8 dereferenceable(64) %14, i32 noundef %128)
  br label %130

129:                                              ; preds = %119
  call void @_ZN6icu_7713UnicodeString10setToBogusEv(ptr noundef nonnull align 8 dereferenceable(64) %14)
  br label %130

130:                                              ; preds = %129, %124
  store i32 1, ptr %13, align 4
  br label %156

131:                                              ; preds = %114
  %132 = load ptr, ptr %8, align 8, !tbaa !8
  %133 = call ptr @ucnv_open_77(ptr noundef %132, ptr noundef %9)
  store ptr %133, ptr %10, align 8, !tbaa !19
  br label %134

134:                                              ; preds = %131
  br label %135

135:                                              ; preds = %134, %113
  %136 = load i32, ptr %9, align 4, !tbaa !17
  %137 = call noundef signext i8 @_ZL9U_FAILURE10UErrorCode(i32 noundef %136)
  %138 = icmp ne i8 %137, 0
  br i1 %138, label %139, label %140

139:                                              ; preds = %135
  call void @_ZN6icu_7713UnicodeString10setToBogusEv(ptr noundef nonnull align 8 dereferenceable(64) %14)
  store i32 1, ptr %13, align 4
  br label %156

140:                                              ; preds = %135
  %141 = load ptr, ptr %6, align 8, !tbaa !8
  %142 = load i32, ptr %7, align 4, !tbaa !15
  %143 = load ptr, ptr %10, align 8, !tbaa !19
  call void @_ZN6icu_7713UnicodeString16doCodepageCreateEPKciP10UConverterR10UErrorCode(ptr noundef nonnull align 8 dereferenceable(64) %14, ptr noundef %141, i32 noundef %142, ptr noundef %143, ptr noundef nonnull align 4 dereferenceable(4) %9)
  %144 = load i32, ptr %9, align 4, !tbaa !17
  %145 = call noundef signext i8 @_ZL9U_FAILURE10UErrorCode(i32 noundef %144)
  %146 = icmp ne i8 %145, 0
  br i1 %146, label %147, label %148

147:                                              ; preds = %140
  call void @_ZN6icu_7713UnicodeString10setToBogusEv(ptr noundef nonnull align 8 dereferenceable(64) %14)
  br label %148

148:                                              ; preds = %147, %140
  %149 = load ptr, ptr %8, align 8, !tbaa !8
  %150 = icmp eq ptr %149, null
  br i1 %150, label %151, label %153

151:                                              ; preds = %148
  %152 = load ptr, ptr %10, align 8, !tbaa !19
  call void @u_releaseDefaultConverter_77(ptr noundef %152)
  br label %155

153:                                              ; preds = %148
  %154 = load ptr, ptr %10, align 8, !tbaa !19
  call void @ucnv_close_77(ptr noundef %154)
  br label %155

155:                                              ; preds = %153, %151
  store i32 0, ptr %13, align 4
  br label %156

156:                                              ; preds = %155, %139, %130, %111
  call void @llvm.lifetime.end.p0(i64 8, ptr %10) #9
  call void @llvm.lifetime.end.p0(i64 4, ptr %9) #9
  %157 = load i32, ptr %13, align 4
  switch i32 %157, label %159 [
    i32 0, label %158
    i32 1, label %158
  ]

158:                                              ; preds = %23, %156, %156
  ret void

159:                                              ; preds = %156
  unreachable
}