; Function Attrs: mustprogress uwtable
define void @_ZN6icu_7713UnicodeString16doCodepageCreateEPKciS2_(ptr noundef nonnull align 8 dereferenceable(64) %0, ptr noundef %1, i32 noundef %2, ptr noundef %3) local_unnamed_addr #0 align 2 {
  %5 = alloca i32, align 4
  %6 = icmp eq ptr %1, null
  %7 = icmp eq i32 %2, 0
  %or.cond = or i1 %6, %7
  %8 = icmp slt i32 %2, -1
  %or.cond3 = or i1 %8, %or.cond
  br i1 %or.cond3, label %89, label %9

9:                                                ; preds = %4
  %10 = icmp eq i32 %2, -1
  br i1 %10, label %11, label %14

11:                                               ; preds = %9
  %12 = tail call i64 @strlen(ptr noundef nonnull dereferenceable(1) %1) #6
  %13 = trunc i64 %12 to i32
  br label %14

14:                                               ; preds = %11, %9
  %.036 = phi i32 [ %13, %11 ], [ %2, %9 ]
  call void @llvm.lifetime.start.p0(i64 4, ptr nonnull %5) #7
  store i32 0, ptr %5, align 4, !tbaa !8
  %15 = icmp eq ptr %3, null
  br i1 %15, label %16, label %53

16:                                               ; preds = %14
  %17 = tail call ptr @ucnv_getDefaultName_77()
  %18 = load i8, ptr %17, align 1, !tbaa !6
  switch i8 %18, label %.thread [
    i8 85, label %19
    i8 117, label %27
  ]

19:                                               ; preds = %16
  %20 = getelementptr inbounds nuw i8, ptr %17, i64 1
  %21 = load i8, ptr %20, align 1, !tbaa !6
  %22 = icmp eq i8 %21, 84
  br i1 %22, label %23, label %.thread

23:                                               ; preds = %19
  %24 = getelementptr inbounds nuw i8, ptr %17, i64 2
  %25 = load i8, ptr %24, align 1, !tbaa !6
  %26 = icmp eq i8 %25, 70
  br i1 %26, label %35, label %.thread

27:                                               ; preds = %16
  %28 = getelementptr inbounds nuw i8, ptr %17, i64 1
  %29 = load i8, ptr %28, align 1, !tbaa !6
  %30 = icmp eq i8 %29, 116
  br i1 %30, label %31, label %.thread

31:                                               ; preds = %27
  %32 = getelementptr inbounds nuw i8, ptr %17, i64 2
  %33 = load i8, ptr %32, align 1, !tbaa !6
  %34 = icmp eq i8 %33, 102
  br i1 %34, label %35, label %.thread

35:                                               ; preds = %31, %23
  %36 = getelementptr inbounds nuw i8, ptr %17, i64 3
  %37 = load i8, ptr %36, align 1, !tbaa !6
  switch i8 %37, label %.thread [
    i8 45, label %38
    i8 56, label %46
  ]

38:                                               ; preds = %35
  %39 = getelementptr inbounds nuw i8, ptr %17, i64 4
  %40 = load i8, ptr %39, align 1, !tbaa !6
  %41 = icmp eq i8 %40, 56
  br i1 %41, label %42, label %.thread

42:                                               ; preds = %38
  %43 = getelementptr inbounds nuw i8, ptr %17, i64 5
  %44 = load i8, ptr %43, align 1, !tbaa !6
  %45 = icmp eq i8 %44, 0
  br i1 %45, label %51, label %.thread

46:                                               ; preds = %35
  %47 = getelementptr inbounds nuw i8, ptr %17, i64 4
  %48 = load i8, ptr %47, align 1, !tbaa !6
  %49 = icmp eq i8 %48, 0
  br i1 %49, label %51, label %.thread

.thread:                                          ; preds = %19, %23, %27, %31, %38, %42, %46, %16, %35
  %50 = call ptr @u_getDefaultConverter_77(ptr noundef nonnull %5)
  br label %78

51:                                               ; preds = %42, %46
  %52 = tail call noundef nonnull align 8 dereferenceable(64) ptr @_ZN6icu_7713UnicodeString9setToUTF8ENS_11StringPieceE(ptr noundef nonnull align 8 dereferenceable(64) %0, ptr nonnull %1, i32 %.036)
  br label %_ZN6icu_7713UnicodeString9setLengthEi.exit

53:                                               ; preds = %14
  %54 = load i8, ptr %3, align 1, !tbaa !6
  %55 = icmp eq i8 %54, 0
  br i1 %55, label %56, label %76

56:                                               ; preds = %53
  %57 = tail call noundef signext i8 @_ZN6icu_7713UnicodeString18cloneArrayIfNeededEiiaPPia(ptr noundef nonnull align 8 dereferenceable(64) %0, i32 noundef %.036, i32 noundef %.036, i8 noundef signext 0, ptr noundef null, i8 noundef signext 0)
  %.not = icmp eq i8 %57, 0
  br i1 %.not, label %75, label %58

58:                                               ; preds = %56
  %59 = getelementptr inbounds nuw i8, ptr %0, i64 8
  %60 = load i16, ptr %59, align 8, !tbaa !6
  %61 = and i16 %60, 2
  %.not.i = icmp eq i16 %61, 0
  %62 = getelementptr inbounds nuw i8, ptr %0, i64 10
  %63 = getelementptr inbounds nuw i8, ptr %0, i64 24
  %64 = load ptr, ptr %63, align 8
  %65 = select i1 %.not.i, ptr %64, ptr %62
  tail call void @u_charsToUChars_77(ptr noundef nonnull %1, ptr noundef %65, i32 noundef %.036)
  %66 = icmp slt i32 %.036, 1024
  %67 = load i16, ptr %59, align 8, !tbaa !6
  br i1 %66, label %68, label %72

68:                                               ; preds = %58
  %69 = and i16 %67, 31
  %.tr.i.i = trunc i32 %.036 to i16
  %70 = shl i16 %.tr.i.i, 5
  %71 = or disjoint i16 %69, %70
  store i16 %71, ptr %59, align 8, !tbaa !6
  br label %_ZN6icu_7713UnicodeString9setLengthEi.exit

72:                                               ; preds = %58
  %73 = or i16 %67, -32
  store i16 %73, ptr %59, align 8, !tbaa !6
  %74 = getelementptr inbounds nuw i8, ptr %0, i64 12
  store i32 %.036, ptr %74, align 4, !tbaa !6
  br label %_ZN6icu_7713UnicodeString9setLengthEi.exit

75:                                               ; preds = %56
  tail call void @_ZN6icu_7713UnicodeString10setToBogusEv(ptr noundef nonnull align 8 dereferenceable(64) %0)
  br label %_ZN6icu_7713UnicodeString9setLengthEi.exit

76:                                               ; preds = %53
  %77 = call ptr @ucnv_open_77(ptr noundef nonnull %3, ptr noundef nonnull %5)
  br label %78

78:                                               ; preds = %.thread, %76
  %.1 = phi ptr [ %77, %76 ], [ %50, %.thread ]
  %79 = load i32, ptr %5, align 4, !tbaa !8
  %80 = icmp slt i32 %79, 1
  br i1 %80, label %82, label %81

81:                                               ; preds = %78
  call void @_ZN6icu_7713UnicodeString10setToBogusEv(ptr noundef nonnull align 8 dereferenceable(64) %0)
  br label %_ZN6icu_7713UnicodeString9setLengthEi.exit

82:                                               ; preds = %78
  call void @_ZN6icu_7713UnicodeString16doCodepageCreateEPKciP10UConverterR10UErrorCode(ptr noundef nonnull align 8 dereferenceable(64) %0, ptr noundef nonnull %1, i32 noundef %.036, ptr noundef %.1, ptr noundef nonnull align 4 dereferenceable(4) %5)
  %83 = load i32, ptr %5, align 4, !tbaa !8
  %84 = icmp slt i32 %83, 1
  br i1 %84, label %86, label %85

85:                                               ; preds = %82
  call void @_ZN6icu_7713UnicodeString10setToBogusEv(ptr noundef nonnull align 8 dereferenceable(64) %0)
  br label %86

86:                                               ; preds = %85, %82
  br i1 %15, label %87, label %88

87:                                               ; preds = %86
  call void @u_releaseDefaultConverter_77(ptr noundef %.1)
  br label %_ZN6icu_7713UnicodeString9setLengthEi.exit

88:                                               ; preds = %86
  call void @ucnv_close_77(ptr noundef %.1)
  br label %_ZN6icu_7713UnicodeString9setLengthEi.exit

_ZN6icu_7713UnicodeString9setLengthEi.exit:       ; preds = %72, %68, %51, %87, %88, %75, %81
  call void @llvm.lifetime.end.p0(i64 4, ptr nonnull %5) #7
  br label %89

89:                                               ; preds = %4, %_ZN6icu_7713UnicodeString9setLengthEi.exit
  ret void
}